; ModuleID = '4/403.c'
source_filename = "4/403.c"
target datalayout = "e-m:e-p270:32:32-p271:32:32-p272:64:64-i64:64-f80:128-n8:16:32:64-S128"
target triple = "x86_64-pc-linux-gnu"

@.str = private unnamed_addr constant [5 x i8] c"%d%d\00", align 1
@.str.1 = private unnamed_addr constant [3 x i8] c"%d\00", align 1
@.str.2 = private unnamed_addr constant [4 x i8] c"%d\0A\00", align 1

; Function Attrs: noinline nounwind uwtable
define dso_local i32 @main() #0 {
  %1 = alloca i32, align 4
  %2 = alloca [99 x [99 x i32]], align 16
  %3 = alloca i32, align 4
  %4 = alloca i32, align 4
  %5 = alloca i32, align 4
  %6 = alloca i32, align 4
  %7 = alloca i32, align 4
  store i32 0, i32* %1, align 4
  store i32 0, i32* %7, align 4
  %8 = call i32 (i8*, ...) @__isoc99_scanf(i8* getelementptr inbounds ([5 x i8], [5 x i8]* @.str, i64 0, i64 0), i32* %3, i32* %4)
  store i32 0, i32* %5, align 4
  br label %9

9:                                                ; preds = %30, %0
  %10 = load i32, i32* %5, align 4
  %11 = load i32, i32* %3, align 4
  %12 = icmp slt i32 %10, %11
  br i1 %12, label %13, label %33

13:                                               ; preds = %9
  store i32 0, i32* %6, align 4
  br label %14

14:                                               ; preds = %26, %13
  %15 = load i32, i32* %6, align 4
  %16 = load i32, i32* %4, align 4
  %17 = icmp slt i32 %15, %16
  br i1 %17, label %18, label %29

18:                                               ; preds = %14
  %19 = load i32, i32* %5, align 4
  %20 = sext i32 %19 to i64
  %21 = getelementptr inbounds [99 x [99 x i32]], [99 x [99 x i32]]* %2, i64 0, i64 %20
  %22 = load i32, i32* %6, align 4
  %23 = sext i32 %22 to i64
  %24 = getelementptr inbounds [99 x i32], [99 x i32]* %21, i64 0, i64 %23
  %25 = call i32 (i8*, ...) @__isoc99_scanf(i8* getelementptr inbounds ([3 x i8], [3 x i8]* @.str.1, i64 0, i64 0), i32* %24)
  br label %26

26:                                               ; preds = %18
  %27 = load i32, i32* %6, align 4
  %28 = add nsw i32 %27, 1
  store i32 %28, i32* %6, align 4
  br label %14

29:                                               ; preds = %14
  br label %30

30:                                               ; preds = %29
  %31 = load i32, i32* %5, align 4
  %32 = add nsw i32 %31, 1
  store i32 %32, i32* %5, align 4
  br label %9

33:                                               ; preds = %9
  store i32 0, i32* %7, align 4
  br label %34

34:                                               ; preds = %104, %33
  %35 = load i32, i32* %7, align 4
  %36 = load i32, i32* %3, align 4
  %37 = load i32, i32* %4, align 4
  %38 = add nsw i32 %36, %37
  %39 = sub nsw i32 %38, 2
  %40 = icmp sle i32 %35, %39
  br i1 %40, label %41, label %107

41:                                               ; preds = %34
  %42 = load i32, i32* %7, align 4
  %43 = load i32, i32* %4, align 4
  %44 = icmp slt i32 %42, %43
  br i1 %44, label %45, label %72

45:                                               ; preds = %41
  store i32 0, i32* %5, align 4
  br label %46

46:                                               ; preds = %68, %45
  %47 = load i32, i32* %5, align 4
  %48 = load i32, i32* %7, align 4
  %49 = icmp sle i32 %47, %48
  br i1 %49, label %50, label %55

50:                                               ; preds = %46
  %51 = load i32, i32* %5, align 4
  %52 = load i32, i32* %3, align 4
  %53 = sub nsw i32 %52, 1
  %54 = icmp sle i32 %51, %53
  br label %55

55:                                               ; preds = %50, %46
  %56 = phi i1 [ false, %46 ], [ %54, %50 ]
  br i1 %56, label %57, label %71

57:                                               ; preds = %55
  %58 = load i32, i32* %5, align 4
  %59 = sext i32 %58 to i64
  %60 = getelementptr inbounds [99 x [99 x i32]], [99 x [99 x i32]]* %2, i64 0, i64 %59
  %61 = load i32, i32* %7, align 4
  %62 = load i32, i32* %5, align 4
  %63 = sub nsw i32 %61, %62
  %64 = sext i32 %63 to i64
  %65 = getelementptr inbounds [99 x i32], [99 x i32]* %60, i64 0, i64 %64
  %66 = load i32, i32* %65, align 4
  %67 = call i32 (i8*, ...) @printf(i8* getelementptr inbounds ([4 x i8], [4 x i8]* @.str.2, i64 0, i64 0), i32 %66)
  br label %68

68:                                               ; preds = %57
  %69 = load i32, i32* %5, align 4
  %70 = add nsw i32 %69, 1
  store i32 %70, i32* %5, align 4
  br label %46

71:                                               ; preds = %55
  br label %103

72:                                               ; preds = %41
  %73 = load i32, i32* %7, align 4
  %74 = add nsw i32 %73, 1
  %75 = load i32, i32* %4, align 4
  %76 = sub nsw i32 %74, %75
  store i32 %76, i32* %5, align 4
  br label %77

77:                                               ; preds = %99, %72
  %78 = load i32, i32* %5, align 4
  %79 = load i32, i32* %7, align 4
  %80 = icmp sle i32 %78, %79
  br i1 %80, label %81, label %86

81:                                               ; preds = %77
  %82 = load i32, i32* %5, align 4
  %83 = load i32, i32* %3, align 4
  %84 = sub nsw i32 %83, 1
  %85 = icmp sle i32 %82, %84
  br label %86

86:                                               ; preds = %81, %77
  %87 = phi i1 [ false, %77 ], [ %85, %81 ]
  br i1 %87, label %88, label %102

88:                                               ; preds = %86
  %89 = load i32, i32* %5, align 4
  %90 = sext i32 %89 to i64
  %91 = getelementptr inbounds [99 x [99 x i32]], [99 x [99 x i32]]* %2, i64 0, i64 %90
  %92 = load i32, i32* %7, align 4
  %93 = load i32, i32* %5, align 4
  %94 = sub nsw i32 %92, %93
  %95 = sext i32 %94 to i64
  %96 = getelementptr inbounds [99 x i32], [99 x i32]* %91, i64 0, i64 %95
  %97 = load i32, i32* %96, align 4
  %98 = call i32 (i8*, ...) @printf(i8* getelementptr inbounds ([4 x i8], [4 x i8]* @.str.2, i64 0, i64 0), i32 %97)
  br label %99

99:                                               ; preds = %88
  %100 = load i32, i32* %5, align 4
  %101 = add nsw i32 %100, 1
  store i32 %101, i32* %5, align 4
  br label %77

102:                                              ; preds = %86
  br label %103

103:                                              ; preds = %102, %71
  br label %104

104:                                              ; preds = %103
  %105 = load i32, i32* %7, align 4
  %106 = add nsw i32 %105, 1
  store i32 %106, i32* %7, align 4
  br label %34

107:                                              ; preds = %34
  ret i32 0
}

declare dso_local i32 @__isoc99_scanf(i8*, ...) #1

declare dso_local i32 @printf(i8*, ...) #1


!llvm.module.flags = !{!0}
!llvm.ident = !{!1}

!0 = !{i32 1, !"wchar_size", i32 4}
!1 = !{!"clang version 10.0.0-4ubuntu1 "}
